target datalayout = "e-m:e-p270:32:32-p271:32:32-p272:64:64-i64:64-i128:128-f80:128-n8:16:32:64-S128"
target triple = "x86_64-pc-linux-gnu"

%struct.TM_FailureData = type { %struct.ItemPointerData, i32, i32, i8 }
%struct.ItemPointerData = type { %struct.BlockIdData, i16 }
%struct.BlockIdData = type { i16, i16 }
%struct.TupleTableSlot = type { i32, i16, i16, ptr, ptr, ptr, ptr, ptr, %struct.ItemPointerData, i32 }
%struct.RelationData = type { %struct.RelFileLocator, ptr, i32, i32, i8, i8, i8, i8, i8, i32, i32, i32, i32, ptr, ptr, i32, %struct.LockInfoData, ptr, ptr, ptr, ptr, ptr, i8, ptr, ptr, ptr, ptr, ptr, ptr, i32, ptr, i8, ptr, ptr, i32, i8, i32, ptr, i8, ptr, ptr, ptr, ptr, ptr, ptr, ptr, i32, ptr, ptr, ptr, ptr, ptr, ptr, ptr, ptr, ptr, ptr, ptr, ptr, ptr, ptr, ptr, ptr, ptr, ptr, ptr, i32, i8, ptr }
%struct.RelFileLocator = type { i32, i32, i32 }
%struct.LockInfoData = type { %struct.LockRelId }
%struct.LockRelId = type { i32, i32 }
%struct.TableAmRoutine = type { i32, ptr, ptr, ptr, ptr, ptr, ptr, ptr, ptr, ptr, ptr, ptr, ptr, ptr, ptr, ptr, ptr, ptr, ptr, ptr, ptr, ptr, ptr, ptr, ptr, ptr, ptr, ptr, ptr, ptr, ptr, ptr, ptr, ptr, ptr, ptr, ptr, ptr, ptr, ptr, ptr, ptr, ptr, ptr, ptr, ptr }
%struct.ResultRelInfo = type { i32, i32, ptr, i32, ptr, ptr, i16, ptr, i8, ptr, ptr, ptr, i8, i8, ptr, ptr, ptr, ptr, ptr, ptr, ptr, ptr, ptr, ptr, i8, i32, i32, i32, ptr, ptr, ptr, ptr, ptr, ptr, ptr, i32, i32, ptr, ptr, ptr, ptr, [3 x ptr], ptr, ptr, ptr, i8, ptr, i8, ptr, ptr, ptr, ptr }
%struct.ForEachState = type { ptr, i32 }
%struct.List = type { i32, i32, i32, ptr, [0 x %union.ListCell] }
%union.ListCell = type { ptr }

; Function Attrs: inlinehint nounwind uwtable
define internal i32 @table_tuple_lock(ptr noundef %0, ptr noundef %1, ptr noundef %2, ptr noundef %3, i32 noundef %4, i32 noundef %5, i32 noundef %6, i8 noundef zeroext %7, ptr noundef %8) #3 {
  %10 = alloca ptr, align 8
  %11 = alloca ptr, align 8
  %12 = alloca ptr, align 8
  %13 = alloca ptr, align 8
  %14 = alloca i32, align 4
  %15 = alloca i32, align 4
  %16 = alloca i32, align 4
  %17 = alloca i8, align 1
  %18 = alloca ptr, align 8
  store ptr %0, ptr %10, align 8
  store ptr %1, ptr %11, align 8
  store ptr %2, ptr %12, align 8
  store ptr %3, ptr %13, align 8
  store i32 %4, ptr %14, align 4
  store i32 %5, ptr %15, align 4
  store i32 %6, ptr %16, align 4
  store i8 %7, ptr %17, align 1
  store ptr %8, ptr %18, align 8
  %19 = load ptr, ptr %10, align 8
  %20 = getelementptr inbounds nuw %struct.RelationData, ptr %19, i32 0, i32 47
  %21 = load ptr, ptr %20, align 8
  %22 = getelementptr inbounds nuw %struct.TableAmRoutine, ptr %21, i32 0, i32 26
  %23 = load ptr, ptr %22, align 8
  %24 = load ptr, ptr %10, align 8
  %25 = load ptr, ptr %11, align 8
  %26 = load ptr, ptr %12, align 8
  %27 = load ptr, ptr %13, align 8
  %28 = load i32, ptr %14, align 4
  %29 = load i32, ptr %15, align 4
  %30 = load i32, ptr %16, align 4
  %31 = load i8, ptr %17, align 1
  %32 = load ptr, ptr %18, align 8
  %33 = call i32 %23(ptr noundef %24, ptr noundef %25, ptr noundef %26, ptr noundef %27, i32 noundef %28, i32 noundef %29, i32 noundef %30, i8 noundef zeroext %31, ptr noundef %32)
  ret i32 %33
}

; Function Attrs: nounwind uwtable
define internal zeroext i1 @FindConflictTuple(ptr noundef %0, ptr noundef %1, i32 noundef %2, ptr noundef %3, ptr noundef %4) #0 {
  %6 = alloca i1, align 1
  %7 = alloca ptr, align 8
  %8 = alloca ptr, align 8
  %9 = alloca i32, align 4
  %10 = alloca ptr, align 8
  %11 = alloca ptr, align 8
  %12 = alloca ptr, align 8
  %13 = alloca %struct.ItemPointerData, align 2
  %14 = alloca %struct.TM_FailureData, align 4
  %15 = alloca i32, align 4
  %16 = alloca %union.ListCell, align 8
  %17 = alloca i32, align 4
  store ptr %0, ptr %7, align 8
  store ptr %1, ptr %8, align 8
  store i32 %2, ptr %9, align 4
  store ptr %3, ptr %10, align 8
  store ptr %4, ptr %11, align 8
  call void @llvm.lifetime.start.p0(i64 8, ptr %12) #7
  %18 = load ptr, ptr %7, align 8
  %19 = getelementptr inbounds nuw %struct.ResultRelInfo, ptr %18, i32 0, i32 2
  %20 = load ptr, ptr %19, align 8
  store ptr %20, ptr %12, align 8
  call void @llvm.lifetime.start.p0(i64 6, ptr %13) #7
  call void @llvm.lifetime.start.p0(i64 20, ptr %14) #7
  call void @llvm.lifetime.start.p0(i64 4, ptr %15) #7
  %21 = load ptr, ptr %11, align 8
  store ptr null, ptr %21, align 8
  br label %22

22:                                               ; preds = %56, %5
  %23 = load ptr, ptr %7, align 8
  %24 = load ptr, ptr %10, align 8
  %25 = load ptr, ptr %8, align 8
  %26 = load ptr, ptr %10, align 8
  %27 = getelementptr inbounds nuw %struct.TupleTableSlot, ptr %26, i32 0, i32 8
  %28 = load i32, ptr %9, align 4
  store i32 %28, ptr %16, align 8
  %29 = getelementptr i8, ptr %16, i64 4
  call void @llvm.memset.p0.i64(ptr align 4 %29, i8 0, i64 4, i1 false)
  %30 = getelementptr inbounds nuw %union.ListCell, ptr %16, i32 0, i32 0
  %31 = load ptr, ptr %30, align 8
  %32 = call ptr @list_make1_impl(i32 noundef 471, ptr %31)
  %33 = call zeroext i1 @ExecCheckIndexConstraints(ptr noundef %23, ptr noundef %24, ptr noundef %25, ptr noundef %13, ptr noundef %27, ptr noundef %32)
  br i1 %33, label %34, label %43

34:                                               ; preds = %22
  %35 = load ptr, ptr %11, align 8
  %36 = load ptr, ptr %35, align 8
  %37 = icmp ne ptr %36, null
  br i1 %37, label %38, label %41

38:                                               ; preds = %34
  %39 = load ptr, ptr %11, align 8
  %40 = load ptr, ptr %39, align 8
  call void @ExecDropSingleTupleTableSlot(ptr noundef %40)
  br label %41

41:                                               ; preds = %38, %34
  %42 = load ptr, ptr %11, align 8
  store ptr null, ptr %42, align 8
  store i1 false, ptr %6, align 1
  store i32 1, ptr %17, align 4
  br label %58

43:                                               ; preds = %22
  %44 = load ptr, ptr %12, align 8
  %45 = call ptr @table_slot_create(ptr noundef %44, ptr noundef null)
  %46 = load ptr, ptr %11, align 8
  store ptr %45, ptr %46, align 8
  %47 = call ptr @GetLatestSnapshot()
  call void @PushActiveSnapshot(ptr noundef %47)
  %48 = load ptr, ptr %12, align 8
  %49 = call ptr @GetLatestSnapshot()
  %50 = load ptr, ptr %11, align 8
  %51 = load ptr, ptr %50, align 8
  %52 = call i32 @GetCurrentCommandId(i1 noundef zeroext false)
  %53 = call i32 @table_tuple_lock(ptr noundef %48, ptr noundef %13, ptr noundef %49, ptr noundef %51, i32 noundef %52, i32 noundef 1, i32 noundef 0, i8 noundef zeroext 0, ptr noundef %14)
  store i32 %53, ptr %15, align 4
  call void @PopActiveSnapshot()
  %54 = load i32, ptr %15, align 4
  %55 = call zeroext i1 @should_refetch_tuple(i32 noundef %54, ptr noundef %14)
  br i1 %55, label %56, label %57

56:                                               ; preds = %43
  br label %22

57:                                               ; preds = %43
  store i1 true, ptr %6, align 1
  store i32 1, ptr %17, align 4
  br label %58

58:                                               ; preds = %57, %41
  call void @llvm.lifetime.end.p0(i64 4, ptr %15) #7
  call void @llvm.lifetime.end.p0(i64 20, ptr %14) #7
  call void @llvm.lifetime.end.p0(i64 6, ptr %13) #7
  call void @llvm.lifetime.end.p0(i64 8, ptr %12) #7
  %59 = load i1, ptr %6, align 1
  ret i1 %59
}

; Function Attrs: nounwind uwtable
define internal void @CheckAndReportConflict(ptr noundef %0, ptr noundef %1, i32 noundef %2, ptr noundef %3, ptr noundef %4, ptr noundef %5) #0 {
  %7 = alloca ptr, align 8
  %8 = alloca ptr, align 8
  %9 = alloca i32, align 4
  %10 = alloca ptr, align 8
  %11 = alloca ptr, align 8
  %12 = alloca ptr, align 8
  %13 = alloca i32, align 4
  %14 = alloca i32, align 4
  %15 = alloca i32, align 4
  %16 = alloca %struct.ForEachState, align 8
  %17 = alloca ptr, align 8
  %18 = alloca i16, align 2
  %19 = alloca i64, align 8
  %20 = alloca i32, align 4
  store ptr %0, ptr %7, align 8
  store ptr %1, ptr %8, align 8
  store i32 %2, ptr %9, align 4
  store ptr %3, ptr %10, align 8
  store ptr %4, ptr %11, align 8
  store ptr %5, ptr %12, align 8
  call void @llvm.lifetime.start.p0(i64 4, ptr %13) #7
  store i32 0, ptr %13, align 4
  call void @llvm.lifetime.start.p0(i64 4, ptr %14) #7
  store i32 1, ptr %14, align 4
  br label %21

21:                                               ; preds = %86, %6
  %22 = load i32, ptr %14, align 4
  %23 = icmp ne i32 %22, 0
  br i1 %23, label %25, label %24

24:                                               ; preds = %21
  store i32 2, ptr %15, align 4
  call void @llvm.lifetime.end.p0(i64 4, ptr %14) #7
  call void @llvm.lifetime.end.p0(i64 4, ptr %13) #7
  br label %87

25:                                               ; preds = %21
  call void @llvm.lifetime.start.p0(i64 16, ptr %16) #7
  %26 = getelementptr inbounds nuw %struct.ForEachState, ptr %16, i32 0, i32 0
  %27 = load ptr, ptr %7, align 8
  %28 = getelementptr inbounds nuw %struct.ResultRelInfo, ptr %27, i32 0, i32 39
  %29 = load ptr, ptr %28, align 8
  store ptr %29, ptr %26, align 8
  %30 = getelementptr inbounds nuw %struct.ForEachState, ptr %16, i32 0, i32 1
  store i32 0, ptr %30, align 8
  %31 = getelementptr i8, ptr %16, i64 12
  call void @llvm.memset.p0.i64(ptr align 4 %31, i8 0, i64 4, i1 false)
  br label %32

32:                                               ; preds = %81, %25
  %33 = getelementptr inbounds nuw %struct.ForEachState, ptr %16, i32 0, i32 0
  %34 = load ptr, ptr %33, align 8
  %35 = icmp ne ptr %34, null
  br i1 %35, label %36, label %54

36:                                               ; preds = %32
  %37 = getelementptr inbounds nuw %struct.ForEachState, ptr %16, i32 0, i32 1
  %38 = load i32, ptr %37, align 8
  %39 = getelementptr inbounds nuw %struct.ForEachState, ptr %16, i32 0, i32 0
  %40 = load ptr, ptr %39, align 8
  %41 = getelementptr inbounds nuw %struct.List, ptr %40, i32 0, i32 1
  %42 = load i32, ptr %41, align 4
  %43 = icmp slt i32 %38, %42
  br i1 %43, label %44, label %54

44:                                               ; preds = %36
  %45 = getelementptr inbounds nuw %struct.ForEachState, ptr %16, i32 0, i32 0
  %46 = load ptr, ptr %45, align 8
  %47 = getelementptr inbounds nuw %struct.List, ptr %46, i32 0, i32 3
  %48 = load ptr, ptr %47, align 8
  %49 = getelementptr inbounds nuw %struct.ForEachState, ptr %16, i32 0, i32 1
  %50 = load i32, ptr %49, align 8
  %51 = sext i32 %50 to i64
  %52 = getelementptr inbounds %union.ListCell, ptr %48, i64 %51
  %53 = load i32, ptr %52, align 8
  store i32 %53, ptr %13, align 4
  br label %54

54:                                               ; preds = %44, %36, %32
  %55 = phi i1 [ false, %36 ], [ false, %32 ], [ true, %44 ]
  br i1 %55, label %57, label %56

56:                                               ; preds = %54
  store i32 5, ptr %15, align 4
  call void @llvm.lifetime.end.p0(i64 16, ptr %16) #7
  br label %85

57:                                               ; preds = %54
  call void @llvm.lifetime.start.p0(i64 8, ptr %17) #7
  %58 = load ptr, ptr %10, align 8
  %59 = load i32, ptr %13, align 4
  %60 = call zeroext i1 @list_member_oid(ptr noundef %58, i32 noundef %59)
  br i1 %60, label %61, label %80

61:                                               ; preds = %57
  %62 = load ptr, ptr %7, align 8
  %63 = load ptr, ptr %8, align 8
  %64 = load i32, ptr %13, align 4
  %65 = load ptr, ptr %12, align 8
  %66 = call zeroext i1 @FindConflictTuple(ptr noundef %62, ptr noundef %63, i32 noundef %64, ptr noundef %65, ptr noundef %17)
  br i1 %66, label %67, label %80

67:                                               ; preds = %61
  call void @llvm.lifetime.start.p0(i64 2, ptr %18) #7
  call void @llvm.lifetime.start.p0(i64 8, ptr %19) #7
  call void @llvm.lifetime.start.p0(i64 4, ptr %20) #7
  %68 = load ptr, ptr %17, align 8
  %69 = call zeroext i1 @GetTupleTransactionInfo(ptr noundef %68, ptr noundef %20, ptr noundef %18, ptr noundef %19)
  %70 = load ptr, ptr %8, align 8
  %71 = load ptr, ptr %7, align 8
  %72 = load i32, ptr %9, align 4
  %73 = load ptr, ptr %11, align 8
  %74 = load ptr, ptr %17, align 8
  %75 = load ptr, ptr %12, align 8
  %76 = load i32, ptr %13, align 4
  %77 = load i32, ptr %20, align 4
  %78 = load i16, ptr %18, align 2
  %79 = load i64, ptr %19, align 8
  call void @ReportApplyConflict(ptr noundef %70, ptr noundef %71, i32 noundef 21, i32 noundef %72, ptr noundef %73, ptr noundef %74, ptr noundef %75, i32 noundef %76, i32 noundef %77, i16 noundef zeroext %78, i64 noundef %79)
  call void @llvm.lifetime.end.p0(i64 4, ptr %20) #7
  call void @llvm.lifetime.end.p0(i64 8, ptr %19) #7
  call void @llvm.lifetime.end.p0(i64 2, ptr %18) #7
  br label %80

80:                                               ; preds = %67, %61, %57
  call void @llvm.lifetime.end.p0(i64 8, ptr %17) #7
  br label %81

81:                                               ; preds = %80
  %82 = getelementptr inbounds nuw %struct.ForEachState, ptr %16, i32 0, i32 1
  %83 = load i32, ptr %82, align 8
  %84 = add i32 %83, 1
  store i32 %84, ptr %82, align 8
  br label %32, !llvm.loop !11

85:                                               ; preds = %56
  br label %86

86:                                               ; preds = %85
  store i32 0, ptr %14, align 4
  br label %21, !llvm.loop !12

87:                                               ; preds = %24
  ret void
}